target datalayout = "e-m:e-p270:32:32-p271:32:32-p272:64:64-i64:64-i128:128-f80:128-n8:16:32:64-S128"
target triple = "x86_64-pc-linux-gnu"

%"class.std::ios_base" = type { ptr, i64, i64, i32, i32, i32, ptr, %"struct.std::ios_base::_Words", [8 x %"struct.std::ios_base::_Words"], i32, ptr, %"class.std::locale" }
%"struct.std::ios_base::_Words" = type { ptr, i64 }
%"class.std::locale" = type { ptr }

@.str.102 = private unnamed_addr constant [3 x i8] c"\\0\00", align 1
@.str.240 = private unnamed_addr constant [3 x i8] c"\\b\00", align 1
@.str.241 = private unnamed_addr constant [3 x i8] c"\\t\00", align 1
@.str.242 = private unnamed_addr constant [3 x i8] c"\\n\00", align 1
@.str.243 = private unnamed_addr constant [3 x i8] c"\\f\00", align 1
@.str.244 = private unnamed_addr constant [3 x i8] c"\\r\00", align 1
@.str.512 = private unnamed_addr constant [3 x i8] c"\\'\00", align 1
@.str.513 = private unnamed_addr constant [3 x i8] c"\\\\\00", align 1
@.str.514 = private unnamed_addr constant [3 x i8] c"\\a\00", align 1
@.str.515 = private unnamed_addr constant [3 x i8] c"\\v\00", align 1
@.str.516 = private unnamed_addr constant [3 x i8] c"\\x\00", align 1

; Function Attrs: inlinehint mustprogress nounwind uwtable
define linkonce_odr noundef i32 @_ZStorSt12_Ios_IostateS_(i32 noundef %0, i32 noundef %1) #4 comdat {
  %3 = alloca i32, align 4
  %4 = alloca i32, align 4
  store i32 %0, ptr %3, align 4, !tbaa !1093
  store i32 %1, ptr %4, align 4, !tbaa !1093
  %5 = load i32, ptr %3, align 4, !tbaa !1093
  %6 = load i32, ptr %4, align 4, !tbaa !1093
  %7 = or i32 %5, %6
  ret i32 %7
}

; Function Attrs: mustprogress nounwind uwtable
define available_externally noundef i32 @_ZNKSt9basic_iosIcSt11char_traitsIcEE7rdstateEv(ptr noundef nonnull align 8 dereferenceable(264) %0) #7 align 2 {
  %2 = alloca ptr, align 8
  store ptr %0, ptr %2, align 8, !tbaa !1091
  %3 = load ptr, ptr %2, align 8
  %4 = getelementptr inbounds nuw %"class.std::ios_base", ptr %3, i32 0, i32 5
  %5 = load i32, ptr %4, align 8, !tbaa !1094
  ret i32 %5
}

; Function Attrs: mustprogress nounwind uwtable
define linkonce_odr hidden noundef i64 @_ZNKSt8ios_base5widthEv(ptr noundef nonnull align 8 dereferenceable(216) %0) #7 comdat align 2 {
  %2 = alloca ptr, align 8
  store ptr %0, ptr %2, align 8, !tbaa !321
  %3 = load ptr, ptr %2, align 8
  %4 = getelementptr inbounds nuw %"class.std::ios_base", ptr %3, i32 0, i32 2
  %5 = load i64, ptr %4, align 8, !tbaa !892
  ret i64 %5
}

; Function Attrs: mustprogress nounwind uwtable
define linkonce_odr hidden noundef i64 @_ZNSt11char_traitsIcE6lengthEPKc(ptr noundef %0) #7 comdat align 2 {
  %2 = alloca ptr, align 8
  store ptr %0, ptr %2, align 8, !tbaa !15
  %3 = load ptr, ptr %2, align 8, !tbaa !15
  %4 = call i64 @strlen(ptr noundef %3) #3
  ret i64 %4
}

; Function Attrs: mustprogress uwtable
define available_externally void @_ZNSt9basic_iosIcSt11char_traitsIcEE8setstateESt12_Ios_Iostate(ptr noundef nonnull align 8 dereferenceable(264) %0, i32 noundef %1) #6 align 2 {
  %3 = alloca ptr, align 8
  %4 = alloca i32, align 4
  store ptr %0, ptr %3, align 8, !tbaa !1091
  store i32 %1, ptr %4, align 4, !tbaa !1093
  %5 = load ptr, ptr %3, align 8
  %6 = call noundef i32 @_ZNKSt9basic_iosIcSt11char_traitsIcEE7rdstateEv(ptr noundef nonnull align 8 dereferenceable(264) %5)
  %7 = load i32, ptr %4, align 4, !tbaa !1093
  %8 = call noundef i32 @_ZStorSt12_Ios_IostateS_(i32 noundef %6, i32 noundef %7)
  call void @_ZNSt9basic_iosIcSt11char_traitsIcEE5clearESt12_Ios_Iostate(ptr noundef nonnull align 8 dereferenceable(264) %5, i32 noundef %8)
  ret void
}

; Function Attrs: mustprogress nounwind uwtable
define linkonce_odr hidden noundef i32 @_ZNSt8ios_base5flagsESt13_Ios_Fmtflags(ptr noundef nonnull align 8 dereferenceable(216) %0, i32 noundef %1) #7 comdat align 2 {
  %3 = alloca ptr, align 8
  %4 = alloca i32, align 4
  %5 = alloca i32, align 4
  store ptr %0, ptr %3, align 8, !tbaa !321
  store i32 %1, ptr %4, align 4, !tbaa !902
  %6 = load ptr, ptr %3, align 8
  call void @llvm.lifetime.start.p0(i64 4, ptr %5) #3
  %7 = getelementptr inbounds nuw %"class.std::ios_base", ptr %6, i32 0, i32 3
  %8 = load i32, ptr %7, align 8, !tbaa !903
  store i32 %8, ptr %5, align 4, !tbaa !902
  %9 = load i32, ptr %4, align 4, !tbaa !902
  %10 = getelementptr inbounds nuw %"class.std::ios_base", ptr %6, i32 0, i32 3
  store i32 %9, ptr %10, align 8, !tbaa !903
  %11 = load i32, ptr %5, align 4, !tbaa !902
  call void @llvm.lifetime.end.p0(i64 4, ptr %5) #3
  ret i32 %11
}

; Function Attrs: mustprogress uwtable
define available_externally noundef nonnull align 8 dereferenceable(8) ptr @_ZNSolsEPFRSt8ios_baseS0_E(ptr noundef nonnull align 8 dereferenceable(8) %0, ptr noundef %1) #6 align 2 {
  %3 = alloca ptr, align 8
  %4 = alloca ptr, align 8
  store ptr %0, ptr %3, align 8, !tbaa !31
  store ptr %1, ptr %4, align 8, !tbaa !152
  %5 = load ptr, ptr %3, align 8
  %6 = load ptr, ptr %4, align 8, !tbaa !152
  %7 = load ptr, ptr %5, align 8, !tbaa !33
  %8 = getelementptr i8, ptr %7, i64 -24
  %9 = load i64, ptr %8, align 8
  %10 = getelementptr inbounds i8, ptr %5, i64 %9
  %11 = call noundef nonnull align 8 dereferenceable(216) ptr %6(ptr noundef nonnull align 8 dereferenceable(216) %10)
  ret ptr %5
}

; Function Attrs: mustprogress nounwind uwtable
define linkonce_odr hidden noundef i32 @_ZNKSt8ios_base5flagsEv(ptr noundef nonnull align 8 dereferenceable(216) %0) #7 comdat align 2 {
  %2 = alloca ptr, align 8
  store ptr %0, ptr %2, align 8, !tbaa !321
  %3 = load ptr, ptr %2, align 8
  %4 = getelementptr inbounds nuw %"class.std::ios_base", ptr %3, i32 0, i32 3
  %5 = load i32, ptr %4, align 8, !tbaa !903
  ret i32 %5
}

; Function Attrs: inlinehint mustprogress uwtable
define available_externally noundef nonnull align 8 dereferenceable(8) ptr @_ZStlsISt11char_traitsIcEERSt13basic_ostreamIcT_ES5_c(ptr noundef nonnull align 8 dereferenceable(8) %0, i8 noundef signext %1) #8 {
  %3 = alloca ptr, align 8
  %4 = alloca ptr, align 8
  %5 = alloca i8, align 1
  store ptr %0, ptr %4, align 8, !tbaa !31
  store i8 %1, ptr %5, align 1, !tbaa !79
  %6 = load ptr, ptr %4, align 8, !tbaa !31
  %7 = load ptr, ptr %6, align 8, !tbaa !33
  %8 = getelementptr i8, ptr %7, i64 -24
  %9 = load i64, ptr %8, align 8
  %10 = getelementptr inbounds i8, ptr %6, i64 %9
  %11 = call noundef i64 @_ZNKSt8ios_base5widthEv(ptr noundef nonnull align 8 dereferenceable(216) %10)
  %12 = icmp ne i64 %11, 0
  br i1 %12, label %13, label %16

13:                                               ; preds = %2
  %14 = load ptr, ptr %4, align 8, !tbaa !31
  %15 = call noundef nonnull align 8 dereferenceable(8) ptr @_ZSt16__ostream_insertIcSt11char_traitsIcEERSt13basic_ostreamIT_T0_ES6_PKS3_l(ptr noundef nonnull align 8 dereferenceable(8) %14, ptr noundef %5, i64 noundef 1)
  store ptr %15, ptr %3, align 8
  br label %21

16:                                               ; preds = %2
  %17 = load ptr, ptr %4, align 8, !tbaa !31
  %18 = load i8, ptr %5, align 1, !tbaa !79
  %19 = call noundef nonnull align 8 dereferenceable(8) ptr @_ZNSo3putEc(ptr noundef nonnull align 8 dereferenceable(8) %17, i8 noundef signext %18)
  %20 = load ptr, ptr %4, align 8, !tbaa !31
  store ptr %20, ptr %3, align 8
  br label %21

21:                                               ; preds = %16, %13
  %22 = load ptr, ptr %3, align 8
  ret ptr %22
}

; Function Attrs: inlinehint mustprogress nounwind uwtable
define linkonce_odr hidden noundef zeroext i1 @_ZN7testing8internal16IsPrintableAsciiEw(i32 noundef signext %0) #4 comdat {
  %2 = alloca i32, align 4
  store i32 %0, ptr %2, align 4, !tbaa !211
  %3 = load i32, ptr %2, align 4, !tbaa !211
  %4 = icmp sle i32 32, %3
  br i1 %4, label %5, label %8

5:                                                ; preds = %1
  %6 = load i32, ptr %2, align 4, !tbaa !211
  %7 = icmp sle i32 %6, 126
  br label %8

8:                                                ; preds = %5, %1
  %9 = phi i1 [ false, %1 ], [ %7, %5 ]
  ret i1 %9
}

; Function Attrs: inlinehint mustprogress uwtable
define available_externally noundef nonnull align 8 dereferenceable(8) ptr @_ZStlsISt11char_traitsIcEERSt13basic_ostreamIcT_ES5_PKc(ptr noundef nonnull align 8 dereferenceable(8) %0, ptr noundef %1) #8 {
  %3 = alloca ptr, align 8
  %4 = alloca ptr, align 8
  store ptr %0, ptr %3, align 8, !tbaa !31
  store ptr %1, ptr %4, align 8, !tbaa !15
  %5 = load ptr, ptr %4, align 8, !tbaa !15
  %6 = icmp ne ptr %5, null
  br i1 %6, label %13, label %7

7:                                                ; preds = %2
  %8 = load ptr, ptr %3, align 8, !tbaa !31
  %9 = load ptr, ptr %8, align 8, !tbaa !33
  %10 = getelementptr i8, ptr %9, i64 -24
  %11 = load i64, ptr %10, align 8
  %12 = getelementptr inbounds i8, ptr %8, i64 %11
  call void @_ZNSt9basic_iosIcSt11char_traitsIcEE8setstateESt12_Ios_Iostate(ptr noundef nonnull align 8 dereferenceable(264) %12, i32 noundef 1)
  br label %19

13:                                               ; preds = %2
  %14 = load ptr, ptr %3, align 8, !tbaa !31
  %15 = load ptr, ptr %4, align 8, !tbaa !15
  %16 = load ptr, ptr %4, align 8, !tbaa !15
  %17 = call noundef i64 @_ZNSt11char_traitsIcE6lengthEPKc(ptr noundef %16)
  %18 = call noundef nonnull align 8 dereferenceable(8) ptr @_ZSt16__ostream_insertIcSt11char_traitsIcEERSt13basic_ostreamIT_T0_ES6_PKS3_l(ptr noundef nonnull align 8 dereferenceable(8) %14, ptr noundef %15, i64 noundef %17)
  br label %19

19:                                               ; preds = %13, %7
  %20 = load ptr, ptr %3, align 8, !tbaa !31
  ret ptr %20
}

; Function Attrs: mustprogress uwtable
define internal noundef i32 @_ZN7testing8internalL20PrintAsCharLiteralToIwwEENS0_10CharFormatET0_PSo(i32 noundef signext %0, ptr noundef %1) #6 {
  %3 = alloca i32, align 4
  %4 = alloca i32, align 4
  %5 = alloca ptr, align 8
  %6 = alloca i32, align 4
  store i32 %0, ptr %4, align 4, !tbaa !211
  store ptr %1, ptr %5, align 8, !tbaa !31
  %7 = load i32, ptr %4, align 4, !tbaa !211
  switch i32 %7, label %38 [
    i32 0, label %8
    i32 39, label %11
    i32 92, label %14
    i32 7, label %17
    i32 8, label %20
    i32 12, label %23
    i32 10, label %26
    i32 13, label %29
    i32 9, label %32
    i32 11, label %35
  ]

8:                                                ; preds = %2
  %9 = load ptr, ptr %5, align 8, !tbaa !31
  %10 = call noundef nonnull align 8 dereferenceable(8) ptr @_ZStlsISt11char_traitsIcEERSt13basic_ostreamIcT_ES5_PKc(ptr noundef nonnull align 8 dereferenceable(8) %9, ptr noundef @.str.102)
  br label %66

11:                                               ; preds = %2
  %12 = load ptr, ptr %5, align 8, !tbaa !31
  %13 = call noundef nonnull align 8 dereferenceable(8) ptr @_ZStlsISt11char_traitsIcEERSt13basic_ostreamIcT_ES5_PKc(ptr noundef nonnull align 8 dereferenceable(8) %12, ptr noundef @.str.512)
  br label %66

14:                                               ; preds = %2
  %15 = load ptr, ptr %5, align 8, !tbaa !31
  %16 = call noundef nonnull align 8 dereferenceable(8) ptr @_ZStlsISt11char_traitsIcEERSt13basic_ostreamIcT_ES5_PKc(ptr noundef nonnull align 8 dereferenceable(8) %15, ptr noundef @.str.513)
  br label %66

17:                                               ; preds = %2
  %18 = load ptr, ptr %5, align 8, !tbaa !31
  %19 = call noundef nonnull align 8 dereferenceable(8) ptr @_ZStlsISt11char_traitsIcEERSt13basic_ostreamIcT_ES5_PKc(ptr noundef nonnull align 8 dereferenceable(8) %18, ptr noundef @.str.514)
  br label %66

20:                                               ; preds = %2
  %21 = load ptr, ptr %5, align 8, !tbaa !31
  %22 = call noundef nonnull align 8 dereferenceable(8) ptr @_ZStlsISt11char_traitsIcEERSt13basic_ostreamIcT_ES5_PKc(ptr noundef nonnull align 8 dereferenceable(8) %21, ptr noundef @.str.240)
  br label %66

23:                                               ; preds = %2
  %24 = load ptr, ptr %5, align 8, !tbaa !31
  %25 = call noundef nonnull align 8 dereferenceable(8) ptr @_ZStlsISt11char_traitsIcEERSt13basic_ostreamIcT_ES5_PKc(ptr noundef nonnull align 8 dereferenceable(8) %24, ptr noundef @.str.243)
  br label %66

26:                                               ; preds = %2
  %27 = load ptr, ptr %5, align 8, !tbaa !31
  %28 = call noundef nonnull align 8 dereferenceable(8) ptr @_ZStlsISt11char_traitsIcEERSt13basic_ostreamIcT_ES5_PKc(ptr noundef nonnull align 8 dereferenceable(8) %27, ptr noundef @.str.242)
  br label %66

29:                                               ; preds = %2
  %30 = load ptr, ptr %5, align 8, !tbaa !31
  %31 = call noundef nonnull align 8 dereferenceable(8) ptr @_ZStlsISt11char_traitsIcEERSt13basic_ostreamIcT_ES5_PKc(ptr noundef nonnull align 8 dereferenceable(8) %30, ptr noundef @.str.244)
  br label %66

32:                                               ; preds = %2
  %33 = load ptr, ptr %5, align 8, !tbaa !31
  %34 = call noundef nonnull align 8 dereferenceable(8) ptr @_ZStlsISt11char_traitsIcEERSt13basic_ostreamIcT_ES5_PKc(ptr noundef nonnull align 8 dereferenceable(8) %33, ptr noundef @.str.241)
  br label %66

35:                                               ; preds = %2
  %36 = load ptr, ptr %5, align 8, !tbaa !31
  %37 = call noundef nonnull align 8 dereferenceable(8) ptr @_ZStlsISt11char_traitsIcEERSt13basic_ostreamIcT_ES5_PKc(ptr noundef nonnull align 8 dereferenceable(8) %36, ptr noundef @.str.515)
  br label %66

38:                                               ; preds = %2
  %39 = load i32, ptr %4, align 4, !tbaa !211
  %40 = call noundef zeroext i1 @_ZN7testing8internal16IsPrintableAsciiEw(i32 noundef signext %39)
  br i1 %40, label %41, label %46

41:                                               ; preds = %38
  %42 = load ptr, ptr %5, align 8, !tbaa !31
  %43 = load i32, ptr %4, align 4, !tbaa !211
  %44 = trunc i32 %43 to i8
  %45 = call noundef nonnull align 8 dereferenceable(8) ptr @_ZStlsISt11char_traitsIcEERSt13basic_ostreamIcT_ES5_c(ptr noundef nonnull align 8 dereferenceable(8) %42, i8 noundef signext %44)
  store i32 0, ptr %3, align 4
  br label %67

46:                                               ; preds = %38
  call void @llvm.lifetime.start.p0(i64 4, ptr %6) #3
  %47 = load ptr, ptr %5, align 8, !tbaa !31
  %48 = load ptr, ptr %47, align 8, !tbaa !33
  %49 = getelementptr i8, ptr %48, i64 -24
  %50 = load i64, ptr %49, align 8
  %51 = getelementptr inbounds i8, ptr %47, i64 %50
  %52 = call noundef i32 @_ZNKSt8ios_base5flagsEv(ptr noundef nonnull align 8 dereferenceable(216) %51)
  store i32 %52, ptr %6, align 4, !tbaa !902
  %53 = load ptr, ptr %5, align 8, !tbaa !31
  %54 = call noundef nonnull align 8 dereferenceable(8) ptr @_ZStlsISt11char_traitsIcEERSt13basic_ostreamIcT_ES5_PKc(ptr noundef nonnull align 8 dereferenceable(8) %53, ptr noundef @.str.516)
  %55 = call noundef nonnull align 8 dereferenceable(8) ptr @_ZNSolsEPFRSt8ios_baseS0_E(ptr noundef nonnull align 8 dereferenceable(8) %54, ptr noundef @_ZSt3hexRSt8ios_base)
  %56 = call noundef nonnull align 8 dereferenceable(8) ptr @_ZNSolsEPFRSt8ios_baseS0_E(ptr noundef nonnull align 8 dereferenceable(8) %55, ptr noundef @_ZSt9uppercaseRSt8ios_base)
  %57 = load i32, ptr %4, align 4, !tbaa !211
  %58 = call noundef nonnull align 8 dereferenceable(8) ptr @_ZNSolsEi(ptr noundef nonnull align 8 dereferenceable(8) %56, i32 noundef %57)
  %59 = load ptr, ptr %5, align 8, !tbaa !31
  %60 = load ptr, ptr %59, align 8, !tbaa !33
  %61 = getelementptr i8, ptr %60, i64 -24
  %62 = load i64, ptr %61, align 8
  %63 = getelementptr inbounds i8, ptr %59, i64 %62
  %64 = load i32, ptr %6, align 4, !tbaa !902
  %65 = call noundef i32 @_ZNSt8ios_base5flagsESt13_Ios_Fmtflags(ptr noundef nonnull align 8 dereferenceable(216) %63, i32 noundef %64)
  store i32 1, ptr %3, align 4
  call void @llvm.lifetime.end.p0(i64 4, ptr %6) #3
  br label %67

66:                                               ; preds = %35, %32, %29, %26, %23, %20, %17, %14, %11, %8
  store i32 2, ptr %3, align 4
  br label %67

67:                                               ; preds = %66, %46, %41
  %68 = load i32, ptr %3, align 4
  ret i32 %68
}