; Function Attrs: mustprogress uwtable
define internal fastcc noundef range(i32 0, 3) i32 @_ZN7testing8internalL20PrintAsCharLiteralToIwwEENS0_10CharFormatET0_PSo(i32 noundef signext %0, ptr noundef %1) unnamed_addr #4 {
  %3 = alloca i8, align 1
  switch i32 %0, label %24 [
    i32 0, label %4
    i32 39, label %6
    i32 92, label %8
    i32 7, label %10
    i32 8, label %12
    i32 12, label %14
    i32 10, label %16
    i32 13, label %18
    i32 9, label %20
    i32 11, label %22
  ]

4:                                                ; preds = %2
  %5 = tail call noundef nonnull align 8 dereferenceable(8) ptr @_ZSt16__ostream_insertIcSt11char_traitsIcEERSt13basic_ostreamIT_T0_ES6_PKS3_l(ptr noundef nonnull align 8 dereferenceable(8) %1, ptr noundef nonnull @.str.102, i64 noundef 2)
  br label %66

6:                                                ; preds = %2
  %7 = tail call noundef nonnull align 8 dereferenceable(8) ptr @_ZSt16__ostream_insertIcSt11char_traitsIcEERSt13basic_ostreamIT_T0_ES6_PKS3_l(ptr noundef nonnull align 8 dereferenceable(8) %1, ptr noundef nonnull @.str.512, i64 noundef 2)
  br label %66

8:                                                ; preds = %2
  %9 = tail call noundef nonnull align 8 dereferenceable(8) ptr @_ZSt16__ostream_insertIcSt11char_traitsIcEERSt13basic_ostreamIT_T0_ES6_PKS3_l(ptr noundef nonnull align 8 dereferenceable(8) %1, ptr noundef nonnull @.str.513, i64 noundef 2)
  br label %66

10:                                               ; preds = %2
  %11 = tail call noundef nonnull align 8 dereferenceable(8) ptr @_ZSt16__ostream_insertIcSt11char_traitsIcEERSt13basic_ostreamIT_T0_ES6_PKS3_l(ptr noundef nonnull align 8 dereferenceable(8) %1, ptr noundef nonnull @.str.514, i64 noundef 2)
  br label %66

12:                                               ; preds = %2
  %13 = tail call noundef nonnull align 8 dereferenceable(8) ptr @_ZSt16__ostream_insertIcSt11char_traitsIcEERSt13basic_ostreamIT_T0_ES6_PKS3_l(ptr noundef nonnull align 8 dereferenceable(8) %1, ptr noundef nonnull @.str.240, i64 noundef 2)
  br label %66

14:                                               ; preds = %2
  %15 = tail call noundef nonnull align 8 dereferenceable(8) ptr @_ZSt16__ostream_insertIcSt11char_traitsIcEERSt13basic_ostreamIT_T0_ES6_PKS3_l(ptr noundef nonnull align 8 dereferenceable(8) %1, ptr noundef nonnull @.str.243, i64 noundef 2)
  br label %66

16:                                               ; preds = %2
  %17 = tail call noundef nonnull align 8 dereferenceable(8) ptr @_ZSt16__ostream_insertIcSt11char_traitsIcEERSt13basic_ostreamIT_T0_ES6_PKS3_l(ptr noundef nonnull align 8 dereferenceable(8) %1, ptr noundef nonnull @.str.242, i64 noundef 2)
  br label %66

18:                                               ; preds = %2
  %19 = tail call noundef nonnull align 8 dereferenceable(8) ptr @_ZSt16__ostream_insertIcSt11char_traitsIcEERSt13basic_ostreamIT_T0_ES6_PKS3_l(ptr noundef nonnull align 8 dereferenceable(8) %1, ptr noundef nonnull @.str.244, i64 noundef 2)
  br label %66

20:                                               ; preds = %2
  %21 = tail call noundef nonnull align 8 dereferenceable(8) ptr @_ZSt16__ostream_insertIcSt11char_traitsIcEERSt13basic_ostreamIT_T0_ES6_PKS3_l(ptr noundef nonnull align 8 dereferenceable(8) %1, ptr noundef nonnull @.str.241, i64 noundef 2)
  br label %66

22:                                               ; preds = %2
  %23 = tail call noundef nonnull align 8 dereferenceable(8) ptr @_ZSt16__ostream_insertIcSt11char_traitsIcEERSt13basic_ostreamIT_T0_ES6_PKS3_l(ptr noundef nonnull align 8 dereferenceable(8) %1, ptr noundef nonnull @.str.515, i64 noundef 2)
  br label %66

24:                                               ; preds = %2
  %25 = add i32 %0, -32
  %26 = icmp ult i32 %25, 95
  br i1 %26, label %27, label %39

27:                                               ; preds = %24
  %28 = trunc nuw i32 %0 to i8
  call void @llvm.lifetime.start.p0(i64 1, ptr nonnull %3)
  store i8 %28, ptr %3, align 1, !tbaa !13
  %29 = load ptr, ptr %1, align 8, !tbaa !23
  %30 = getelementptr i8, ptr %29, i64 -24
  %31 = load i64, ptr %30, align 8
  %32 = getelementptr inbounds i8, ptr %1, i64 %31
  %33 = getelementptr inbounds nuw i8, ptr %32, i64 16
  %34 = load i64, ptr %33, align 8, !tbaa !284
  %.not.i = icmp eq i64 %34, 0
  br i1 %.not.i, label %37, label %35

35:                                               ; preds = %27
  %36 = call noundef nonnull align 8 dereferenceable(8) ptr @_ZSt16__ostream_insertIcSt11char_traitsIcEERSt13basic_ostreamIT_T0_ES6_PKS3_l(ptr noundef nonnull align 8 dereferenceable(8) %1, ptr noundef nonnull %3, i64 noundef 1)
  br label %_ZStlsISt11char_traitsIcEERSt13basic_ostreamIcT_ES5_c.exit

37:                                               ; preds = %27
  %38 = tail call noundef nonnull align 8 dereferenceable(8) ptr @_ZNSo3putEc(ptr noundef nonnull align 8 dereferenceable(8) %1, i8 noundef signext %28)
  br label %_ZStlsISt11char_traitsIcEERSt13basic_ostreamIcT_ES5_c.exit

_ZStlsISt11char_traitsIcEERSt13basic_ostreamIcT_ES5_c.exit: ; preds = %35, %37
  call void @llvm.lifetime.end.p0(i64 1, ptr nonnull %3)
  br label %66

39:                                               ; preds = %24
  %40 = load ptr, ptr %1, align 8, !tbaa !23
  %41 = getelementptr i8, ptr %40, i64 -24
  %42 = load i64, ptr %41, align 8
  %43 = getelementptr inbounds i8, ptr %1, i64 %42
  %44 = getelementptr inbounds nuw i8, ptr %43, i64 24
  %45 = load i32, ptr %44, align 8, !tbaa !518
  %46 = tail call noundef nonnull align 8 dereferenceable(8) ptr @_ZSt16__ostream_insertIcSt11char_traitsIcEERSt13basic_ostreamIT_T0_ES6_PKS3_l(ptr noundef nonnull align 8 dereferenceable(8) %1, ptr noundef nonnull @.str.516, i64 noundef 2)
  %47 = load ptr, ptr %1, align 8, !tbaa !23
  %48 = getelementptr i8, ptr %47, i64 -24
  %49 = load i64, ptr %48, align 8
  %50 = getelementptr inbounds i8, ptr %1, i64 %49
  %51 = getelementptr inbounds nuw i8, ptr %50, i64 24
  %52 = load i32, ptr %51, align 8, !tbaa !518
  %53 = and i32 %52, -75
  %54 = or disjoint i32 %53, 8
  store i32 %54, ptr %51, align 4, !tbaa !519
  %55 = load i64, ptr %48, align 8
  %56 = getelementptr inbounds i8, ptr %1, i64 %55
  %57 = getelementptr inbounds nuw i8, ptr %56, i64 24
  %58 = load i32, ptr %57, align 8, !tbaa !518
  %59 = or i32 %58, 16384
  store i32 %59, ptr %57, align 4, !tbaa !519
  %60 = tail call noundef nonnull align 8 dereferenceable(8) ptr @_ZNSolsEi(ptr noundef nonnull align 8 dereferenceable(8) %1, i32 noundef %0)
  %61 = load ptr, ptr %1, align 8, !tbaa !23
  %62 = getelementptr i8, ptr %61, i64 -24
  %63 = load i64, ptr %62, align 8
  %64 = getelementptr inbounds i8, ptr %1, i64 %63
  %65 = getelementptr inbounds nuw i8, ptr %64, i64 24
  store i32 %45, ptr %65, align 8, !tbaa !518
  br label %66

66:                                               ; preds = %4, %6, %8, %10, %12, %14, %16, %18, %20, %22, %39, %_ZStlsISt11char_traitsIcEERSt13basic_ostreamIcT_ES5_c.exit
  %.0 = phi i32 [ 0, %_ZStlsISt11char_traitsIcEERSt13basic_ostreamIcT_ES5_c.exit ], [ 1, %39 ], [ 2, %22 ], [ 2, %20 ], [ 2, %18 ], [ 2, %16 ], [ 2, %14 ], [ 2, %12 ], [ 2, %10 ], [ 2, %8 ], [ 2, %6 ], [ 2, %4 ]
  ret i32 %.0
}